target datalayout = "e-m:e-p270:32:32-p271:32:32-p272:64:64-i64:64-i128:128-f80:128-n8:16:32:64-S128"
target triple = "x86_64-pc-linux-gnu"

%struct.ISzAlloc = type { ptr, ptr }
%struct.CBraState = type { i64, i64, i64, i32, i32, i32, i32, i32, [256 x i8], [16384 x i8] }
%struct._IStateCoder = type { ptr, ptr, ptr, ptr, ptr }

; Function Attrs: nounwind uwtable
define i32 @BraState_SetFromMethod(ptr noundef %0, i64 noundef %1, ptr noundef %2) #0 {
  %4 = alloca i32, align 4
  %5 = alloca ptr, align 8
  %6 = alloca i64, align 8
  %7 = alloca ptr, align 8
  %8 = alloca ptr, align 8
  store ptr %0, ptr %5, align 8
  store i64 %1, ptr %6, align 8
  store ptr %2, ptr %7, align 8
  %9 = load i64, ptr %6, align 8
  %10 = icmp ne i64 %9, 3
  br i1 %10, label %11, label %30

11:                                               ; preds = %3
  %12 = load i64, ptr %6, align 8
  %13 = icmp ne i64 %12, 4
  br i1 %13, label %14, label %30

14:                                               ; preds = %11
  %15 = load i64, ptr %6, align 8
  %16 = icmp ne i64 %15, 5
  br i1 %16, label %17, label %30

17:                                               ; preds = %14
  %18 = load i64, ptr %6, align 8
  %19 = icmp ne i64 %18, 6
  br i1 %19, label %20, label %30

20:                                               ; preds = %17
  %21 = load i64, ptr %6, align 8
  %22 = icmp ne i64 %21, 7
  br i1 %22, label %23, label %30

23:                                               ; preds = %20
  %24 = load i64, ptr %6, align 8
  %25 = icmp ne i64 %24, 8
  br i1 %25, label %26, label %30

26:                                               ; preds = %23
  %27 = load i64, ptr %6, align 8
  %28 = icmp ne i64 %27, 9
  br i1 %28, label %29, label %30

29:                                               ; preds = %26
  store i32 4, ptr %4, align 4
  br label %57

30:                                               ; preds = %26, %23, %20, %17, %14, %11, %3
  %31 = load ptr, ptr %5, align 8
  %32 = getelementptr inbounds %struct._IStateCoder, ptr %31, i32 0, i32 0
  store ptr null, ptr %32, align 8
  %33 = load ptr, ptr %7, align 8
  %34 = getelementptr inbounds %struct.ISzAlloc, ptr %33, i32 0, i32 0
  %35 = load ptr, ptr %34, align 8
  %36 = load ptr, ptr %7, align 8
  %37 = call ptr %35(ptr noundef %36, i64 noundef 16688)
  store ptr %37, ptr %8, align 8
  %38 = load ptr, ptr %8, align 8
  %39 = icmp eq ptr %38, null
  br i1 %39, label %40, label %41

40:                                               ; preds = %30
  store i32 2, ptr %4, align 4
  br label %57

41:                                               ; preds = %30
  %42 = load i64, ptr %6, align 8
  %43 = trunc i64 %42 to i32
  %44 = load ptr, ptr %8, align 8
  %45 = getelementptr inbounds %struct.CBraState, ptr %44, i32 0, i32 3
  store i32 %43, ptr %45, align 8
  %46 = load ptr, ptr %8, align 8
  %47 = load ptr, ptr %5, align 8
  %48 = getelementptr inbounds %struct._IStateCoder, ptr %47, i32 0, i32 0
  store ptr %46, ptr %48, align 8
  %49 = load ptr, ptr %5, align 8
  %50 = getelementptr inbounds %struct._IStateCoder, ptr %49, i32 0, i32 1
  store ptr @BraState_Free, ptr %50, align 8
  %51 = load ptr, ptr %5, align 8
  %52 = getelementptr inbounds %struct._IStateCoder, ptr %51, i32 0, i32 2
  store ptr @BraState_SetProps, ptr %52, align 8
  %53 = load ptr, ptr %5, align 8
  %54 = getelementptr inbounds %struct._IStateCoder, ptr %53, i32 0, i32 3
  store ptr @BraState_Init, ptr %54, align 8
  %55 = load ptr, ptr %5, align 8
  %56 = getelementptr inbounds %struct._IStateCoder, ptr %55, i32 0, i32 4
  store ptr @BraState_Code, ptr %56, align 8
  store i32 0, ptr %4, align 4
  br label %57

57:                                               ; preds = %41, %40, %29
  %58 = load i32, ptr %4, align 4
  ret i32 %58
}