; Function Attrs: nounwind uwtable
define range(i32 0, 5) i32 @BraState_SetFromMethod(ptr noundef writeonly captures(none) %0, i64 noundef %1, ptr noundef %2) local_unnamed_addr #1 {
  %4 = add i64 %1, -10
  %or.cond11 = icmp ult i64 %4, -7
  br i1 %or.cond11, label %16, label %5

5:                                                ; preds = %3
  store ptr null, ptr %0, align 8
  %6 = load ptr, ptr %2, align 8
  %7 = tail call ptr %6(ptr noundef nonnull %2, i64 noundef 16688) #10
  %8 = icmp eq ptr %7, null
  br i1 %8, label %16, label %9

9:                                                ; preds = %5
  %10 = trunc nuw i64 %1 to i32
  %11 = getelementptr inbounds nuw i8, ptr %7, i64 24
  store i32 %10, ptr %11, align 8
  store ptr %7, ptr %0, align 8
  %12 = getelementptr inbounds nuw i8, ptr %0, i64 8
  store ptr @BraState_Free, ptr %12, align 8
  %13 = getelementptr inbounds nuw i8, ptr %0, i64 16
  store ptr @BraState_SetProps, ptr %13, align 8
  %14 = getelementptr inbounds nuw i8, ptr %0, i64 24
  store ptr @BraState_Init, ptr %14, align 8
  %15 = getelementptr inbounds nuw i8, ptr %0, i64 32
  store ptr @BraState_Code, ptr %15, align 8
  br label %16

16:                                               ; preds = %5, %3, %9
  %.0 = phi i32 [ 0, %9 ], [ 4, %3 ], [ 2, %5 ]
  ret i32 %.0
}